target datalayout = "e-m:e-p270:32:32-p271:32:32-p272:64:64-i64:64-i128:128-f80:128-n8:16:32:64-S128"
target triple = "x86_64-pc-linux-gnu"

%class.CommandData = type { %class.RAROptions, i8, i8, i32, i8, [2064 x i32], [2048 x i32], %class.StringList, %class.StringList, %class.StringList, %class.StringList, %class.StringList, %class.SecPassword, %"class.std::vector.0" }
%class.RAROptions = type { i32, i32, i8, i8, i8, i64, [2048 x i32], [2048 x i32], i32, i8, [2048 x i32], [2048 x i32], i32, i32, i32, i32, [2048 x i32], [2048 x i32], i8, i8, i8, [2048 x i32], i32, i32, i32, i32, i32, i32, i32, i32, i8, i8, i8, i8, i8, i32, i32, i8, i8, i8, i8, i8, i32, i32, i64, i32, i8, i8, i8, i32, i32, i8, i8, i8, i8, i32, i32, i8, i8, i8, i8, [128 x i32], [128 x i32], i8, i8, i8, i8, i8, %class.RarTime, %class.RarTime, %class.RarTime, i8, i8, i8, %class.RarTime, %class.RarTime, %class.RarTime, i8, i8, i8, i64, i64, i8, i8, i8, [16 x %struct.FilterMode], [2048 x i32], i32, i32, i32, i32, i32, i32, i8, [2048 x i32], i32, [2048 x i32], i32, i32, i64, ptr, ptr, ptr }
%class.RarTime = type { i64 }
%struct.FilterMode = type { i32, i32, i32 }
%class.StringList = type { %class.Array, i64, i64, [16 x i64], i64 }
%class.Array = type { ptr, i64, i64, i64 }
%class.SecPassword = type <{ %"class.std::vector", i8, [7 x i8] }>
%"class.std::vector" = type { %"struct.std::_Vector_base" }
%"struct.std::_Vector_base" = type { %"struct.std::_Vector_base<wchar_t, std::allocator<wchar_t>>::_Vector_impl" }
%"struct.std::_Vector_base<wchar_t, std::allocator<wchar_t>>::_Vector_impl" = type { %"struct.std::_Vector_base<wchar_t, std::allocator<wchar_t>>::_Vector_impl_data" }
%"struct.std::_Vector_base<wchar_t, std::allocator<wchar_t>>::_Vector_impl_data" = type { ptr, ptr, ptr }
%"class.std::vector.0" = type { %"struct.std::_Vector_base.1" }
%"struct.std::_Vector_base.1" = type { %"struct.std::_Vector_base<long, std::allocator<long>>::_Vector_impl" }
%"struct.std::_Vector_base<long, std::allocator<long>>::_Vector_impl" = type { %"struct.std::_Vector_base<long, std::allocator<long>>::_Vector_impl_data" }
%"struct.std::_Vector_base<long, std::allocator<long>>::_Vector_impl_data" = type { ptr, ptr, ptr }

@.str.8 = private unnamed_addr constant [7 x i32] [i32 46, i32 114, i32 97, i32 114, i32 114, i32 99, i32 0], align 4
@.str.9 = private unnamed_addr constant [10 x i32] [i32 115, i32 119, i32 105, i32 116, i32 99, i32 104, i32 101, i32 115, i32 61, i32 0], align 4
@.str.10 = private unnamed_addr constant [14 x i32] [i32 115, i32 119, i32 105, i32 116, i32 99, i32 104, i32 101, i32 115, i32 95, i32 37, i32 108, i32 115, i32 61, i32 0], align 4

; Function Attrs: mustprogress nounwind uwtable
define linkonce_odr void @_ZN5ArrayIwED2Ev(ptr noundef nonnull align 8 dereferenceable(32) %0) unnamed_addr #1 comdat align 2 {
  %2 = alloca ptr, align 8
  store ptr %0, ptr %2, align 8
  %3 = load ptr, ptr %2, align 8
  %4 = getelementptr inbounds %class.Array, ptr %3, i32 0, i32 0
  %5 = load ptr, ptr %4, align 8
  %6 = icmp ne ptr %5, null
  br i1 %6, label %7, label %10

7:                                                ; preds = %1
  %8 = getelementptr inbounds %class.Array, ptr %3, i32 0, i32 0
  %9 = load ptr, ptr %8, align 8
  call void @free(ptr noundef %9) #11
  br label %10

10:                                               ; preds = %7, %1
  ret void
}

; Function Attrs: mustprogress nounwind uwtable
define linkonce_odr void @_ZN10StringListD2Ev(ptr noundef nonnull align 8 dereferenceable(184) %0) unnamed_addr #1 comdat align 2 {
  %2 = alloca ptr, align 8
  store ptr %0, ptr %2, align 8
  %3 = load ptr, ptr %2, align 8
  %4 = getelementptr inbounds %class.StringList, ptr %3, i32 0, i32 0
  call void @_ZN5ArrayIwED2Ev(ptr noundef nonnull align 8 dereferenceable(32) %4) #11
  ret void
}

; Function Attrs: mustprogress uwtable
define void @_ZN11CommandData10ReadConfigEv(ptr noundef nonnull align 8 dereferenceable(100904) %0) #0 align 2 personality ptr @__gxx_personality_v0 {
  %2 = alloca ptr, align 8
  %3 = alloca %class.StringList, align 8
  %4 = alloca ptr, align 8
  %5 = alloca i32, align 4
  %6 = alloca ptr, align 8
  %7 = alloca [16 x i32], align 16
  %8 = alloca i32, align 4
  %9 = alloca i32, align 4
  %10 = alloca [32 x i32], align 16
  %11 = alloca i64, align 8
  store ptr %0, ptr %2, align 8
  %12 = load ptr, ptr %2, align 8
  call void @_ZN10StringListC1Ev(ptr noundef nonnull align 8 dereferenceable(184) %3)
  %13 = invoke noundef zeroext i1 @_Z12ReadTextFilePKwP10StringListbb11RAR_CHARSETbbb(ptr noundef @.str.8, ptr noundef %3, i1 noundef zeroext true, i1 noundef zeroext false, i32 noundef 0, i1 noundef zeroext false, i1 noundef zeroext false, i1 noundef zeroext false)
          to label %14 unwind label %29

14:                                               ; preds = %1
  br i1 %13, label %15, label %107

15:                                               ; preds = %14
  br label %16

16:                                               ; preds = %105, %15
  %17 = invoke noundef ptr @_ZN10StringList9GetStringEv(ptr noundef nonnull align 8 dereferenceable(184) %3)
          to label %18 unwind label %29

18:                                               ; preds = %16
  store ptr %17, ptr %6, align 8
  %19 = icmp ne ptr %17, null
  br i1 %19, label %20, label %106

20:                                               ; preds = %18
  br label %21

21:                                               ; preds = %26, %20
  %22 = load ptr, ptr %6, align 8
  %23 = load i32, ptr %22, align 4
  %24 = invoke noundef zeroext i1 @_Z7IsSpacei(i32 noundef %23)
          to label %25 unwind label %29

25:                                               ; preds = %21
  br i1 %24, label %26, label %33

26:                                               ; preds = %25
  %27 = load ptr, ptr %6, align 8
  %28 = getelementptr inbounds i32, ptr %27, i32 1
  store ptr %28, ptr %6, align 8
  br label %21, !llvm.loop !19

29:                                               ; preds = %99, %87, %55, %51, %47, %38, %33, %21, %16, %1
  %30 = landingpad { ptr, i32 }
          cleanup
  %31 = extractvalue { ptr, i32 } %30, 0
  store ptr %31, ptr %4, align 8
  %32 = extractvalue { ptr, i32 } %30, 1
  store i32 %32, ptr %5, align 4
  call void @_ZN10StringListD2Ev(ptr noundef nonnull align 8 dereferenceable(184) %3) #11
  br label %108

33:                                               ; preds = %25
  %34 = load ptr, ptr %6, align 8
  %35 = invoke noundef i32 @_Z9wcsnicompPKwS0_m(ptr noundef %34, ptr noundef @.str.9, i64 noundef 9)
          to label %36 unwind label %29

36:                                               ; preds = %33
  %37 = icmp eq i32 %35, 0
  br i1 %37, label %38, label %42

38:                                               ; preds = %36
  %39 = load ptr, ptr %6, align 8
  %40 = getelementptr inbounds i32, ptr %39, i64 9
  invoke void @_ZN11CommandData21ProcessSwitchesStringEPKw(ptr noundef nonnull align 8 dereferenceable(100904) %12, ptr noundef %40)
          to label %41 unwind label %29

41:                                               ; preds = %38
  br label %42

42:                                               ; preds = %41, %36
  %43 = getelementptr inbounds %class.CommandData, ptr %12, i32 0, i32 5
  %44 = getelementptr inbounds [2064 x i32], ptr %43, i64 0, i64 0
  %45 = load i32, ptr %44, align 4
  %46 = icmp ne i32 %45, 0
  br i1 %46, label %47, label %105

47:                                               ; preds = %42
  %48 = getelementptr inbounds [16 x i32], ptr %7, i64 0, i64 0
  %49 = getelementptr inbounds %class.CommandData, ptr %12, i32 0, i32 5
  %50 = getelementptr inbounds [2064 x i32], ptr %49, i64 0, i64 0
  invoke void @_Z8wcsncpyzPwPKwm(ptr noundef %48, ptr noundef %50, i64 noundef 16)
          to label %51 unwind label %29

51:                                               ; preds = %47
  %52 = getelementptr inbounds [16 x i32], ptr %7, i64 0, i64 0
  %53 = load i32, ptr %52, align 16
  %54 = invoke noundef i32 @_Z8toupperwi(i32 noundef %53)
          to label %55 unwind label %29

55:                                               ; preds = %51
  store i32 %54, ptr %8, align 4
  %56 = getelementptr inbounds [16 x i32], ptr %7, i64 0, i64 1
  %57 = load i32, ptr %56, align 4
  %58 = invoke noundef i32 @_Z8toupperwi(i32 noundef %57)
          to label %59 unwind label %29

59:                                               ; preds = %55
  store i32 %58, ptr %9, align 4
  %60 = load i32, ptr %8, align 4
  %61 = icmp eq i32 %60, 73
  br i1 %61, label %74, label %62

62:                                               ; preds = %59
  %63 = load i32, ptr %8, align 4
  %64 = icmp eq i32 %63, 76
  br i1 %64, label %74, label %65

65:                                               ; preds = %62
  %66 = load i32, ptr %8, align 4
  %67 = icmp eq i32 %66, 77
  br i1 %67, label %74, label %68

68:                                               ; preds = %65
  %69 = load i32, ptr %8, align 4
  %70 = icmp eq i32 %69, 83
  br i1 %70, label %74, label %71

71:                                               ; preds = %68
  %72 = load i32, ptr %8, align 4
  %73 = icmp eq i32 %72, 86
  br i1 %73, label %74, label %76

74:                                               ; preds = %71, %68, %65, %62, %59
  %75 = getelementptr inbounds [16 x i32], ptr %7, i64 0, i64 1
  store i32 0, ptr %75, align 4
  br label %76

76:                                               ; preds = %74, %71
  %77 = load i32, ptr %8, align 4
  %78 = icmp eq i32 %77, 82
  br i1 %78, label %79, label %87

79:                                               ; preds = %76
  %80 = load i32, ptr %9, align 4
  %81 = icmp eq i32 %80, 82
  br i1 %81, label %85, label %82

82:                                               ; preds = %79
  %83 = load i32, ptr %9, align 4
  %84 = icmp eq i32 %83, 86
  br i1 %84, label %85, label %87

85:                                               ; preds = %82, %79
  %86 = getelementptr inbounds [16 x i32], ptr %7, i64 0, i64 2
  store i32 0, ptr %86, align 8
  br label %87

87:                                               ; preds = %85, %82, %76
  %88 = getelementptr inbounds [32 x i32], ptr %10, i64 0, i64 0
  %89 = getelementptr inbounds [16 x i32], ptr %7, i64 0, i64 0
  %90 = call i32 (ptr, i64, ptr, ...) @swprintf(ptr noundef %88, i64 noundef 32, ptr noundef @.str.10, ptr noundef %89) #11
  %91 = getelementptr inbounds [32 x i32], ptr %10, i64 0, i64 0
  %92 = call i64 @wcslen(ptr noundef %91) #10
  store i64 %92, ptr %11, align 8
  %93 = load ptr, ptr %6, align 8
  %94 = getelementptr inbounds [32 x i32], ptr %10, i64 0, i64 0
  %95 = load i64, ptr %11, align 8
  %96 = invoke noundef i32 @_Z9wcsnicompPKwS0_m(ptr noundef %93, ptr noundef %94, i64 noundef %95)
          to label %97 unwind label %29

97:                                               ; preds = %87
  %98 = icmp eq i32 %96, 0
  br i1 %98, label %99, label %104

99:                                               ; preds = %97
  %100 = load ptr, ptr %6, align 8
  %101 = load i64, ptr %11, align 8
  %102 = getelementptr inbounds i32, ptr %100, i64 %101
  invoke void @_ZN11CommandData21ProcessSwitchesStringEPKw(ptr noundef nonnull align 8 dereferenceable(100904) %12, ptr noundef %102)
          to label %103 unwind label %29

103:                                              ; preds = %99
  br label %104

104:                                              ; preds = %103, %97
  br label %105

105:                                              ; preds = %104, %42
  br label %16, !llvm.loop !20

106:                                              ; preds = %18
  br label %107

107:                                              ; preds = %106, %14
  call void @_ZN10StringListD2Ev(ptr noundef nonnull align 8 dereferenceable(184) %3) #11
  ret void

108:                                              ; preds = %29
  %109 = load ptr, ptr %4, align 8
  %110 = load i32, ptr %5, align 4
  %111 = insertvalue { ptr, i32 } poison, ptr %109, 0
  %112 = insertvalue { ptr, i32 } %111, i32 %110, 1
  resume { ptr, i32 } %112
}