; Function Attrs: mustprogress uwtable
define void @_ZN11CommandData10ReadConfigEv(ptr noundef nonnull align 8 dereferenceable(100904) %0) local_unnamed_addr #0 align 2 personality ptr @__gxx_personality_v0 {
  %2 = alloca %class.StringList, align 8
  %3 = alloca [16 x i32], align 16
  %4 = alloca [32 x i32], align 16
  call void @_ZN10StringListC1Ev(ptr noundef nonnull align 8 dereferenceable(184) %2)
  %5 = invoke noundef zeroext i1 @_Z12ReadTextFilePKwP10StringListbb11RAR_CHARSETbbb(ptr noundef nonnull @.str.8, ptr noundef nonnull %2, i1 noundef zeroext true, i1 noundef zeroext false, i32 noundef 0, i1 noundef zeroext false, i1 noundef zeroext false, i1 noundef zeroext false)
          to label %6 unwind label %.loopexit.split-lp.loopexit.split-lp

6:                                                ; preds = %1
  br i1 %5, label %.preheader31, label %.loopexit35

.preheader31:                                     ; preds = %6
  %7 = getelementptr inbounds nuw i8, ptr %0, i64 83476
  %8 = getelementptr inbounds nuw i8, ptr %3, i64 4
  %9 = getelementptr inbounds nuw i8, ptr %3, i64 8
  br label %10

10:                                               ; preds = %.backedge, %.preheader31
  %11 = invoke noundef ptr @_ZN10StringList9GetStringEv(ptr noundef nonnull align 8 dereferenceable(184) %2)
          to label %12 unwind label %.loopexit.split-lp.loopexit

12:                                               ; preds = %10
  %.not = icmp eq ptr %11, null
  br i1 %.not, label %.loopexit35, label %.preheader

.preheader:                                       ; preds = %12, %16
  %.0 = phi ptr [ %17, %16 ], [ %11, %12 ]
  %13 = load i32, ptr %.0, align 4
  %14 = invoke noundef zeroext i1 @_Z7IsSpacei(i32 noundef %13)
          to label %15 unwind label %.loopexit

15:                                               ; preds = %.preheader
  br i1 %14, label %16, label %20

16:                                               ; preds = %15
  %17 = getelementptr inbounds nuw i8, ptr %.0, i64 4
  br label %.preheader, !llvm.loop !20

.loopexit:                                        ; preds = %.preheader
  %lpad.loopexit = landingpad { ptr, i32 }
          cleanup
  br label %.loopexit.split-lp

.loopexit.split-lp.loopexit:                      ; preds = %47, %41, %32, %29, %28, %24, %20, %10
  %lpad.loopexit32 = landingpad { ptr, i32 }
          cleanup
  br label %.loopexit.split-lp

.loopexit.split-lp.loopexit.split-lp:             ; preds = %1
  %lpad.loopexit.split-lp33 = landingpad { ptr, i32 }
          cleanup
  br label %.loopexit.split-lp

.loopexit.split-lp:                               ; preds = %.loopexit.split-lp.loopexit, %.loopexit.split-lp.loopexit.split-lp, %.loopexit
  %lpad.phi = phi { ptr, i32 } [ %lpad.loopexit, %.loopexit ], [ %lpad.loopexit32, %.loopexit.split-lp.loopexit ], [ %lpad.loopexit.split-lp33, %.loopexit.split-lp.loopexit.split-lp ]
  %18 = load ptr, ptr %2, align 8
  %.not.i.i = icmp eq ptr %18, null
  br i1 %.not.i.i, label %_ZN10StringListD2Ev.exit, label %19

19:                                               ; preds = %.loopexit.split-lp
  call void @free(ptr noundef nonnull %18) #18
  br label %_ZN10StringListD2Ev.exit

_ZN10StringListD2Ev.exit:                         ; preds = %.loopexit.split-lp, %19
  resume { ptr, i32 } %lpad.phi

20:                                               ; preds = %15
  %21 = invoke noundef i32 @_Z9wcsnicompPKwS0_m(ptr noundef nonnull %.0, ptr noundef nonnull @.str.9, i64 noundef 9)
          to label %22 unwind label %.loopexit.split-lp.loopexit

22:                                               ; preds = %20
  %23 = icmp eq i32 %21, 0
  br i1 %23, label %24, label %26

24:                                               ; preds = %22
  %25 = getelementptr inbounds nuw i8, ptr %.0, i64 36
  invoke void @_ZN11CommandData21ProcessSwitchesStringEPKw(ptr noundef nonnull align 8 dereferenceable(100904) %0, ptr noundef nonnull %25)
          to label %26 unwind label %.loopexit.split-lp.loopexit

26:                                               ; preds = %24, %22
  %27 = load i32, ptr %7, align 4
  %.not28 = icmp eq i32 %27, 0
  br i1 %.not28, label %.backedge, label %28

28:                                               ; preds = %26
  invoke void @_Z8wcsncpyzPwPKwm(ptr noundef nonnull %3, ptr noundef nonnull %7, i64 noundef 16)
          to label %29 unwind label %.loopexit.split-lp.loopexit

29:                                               ; preds = %28
  %30 = load i32, ptr %3, align 16
  %31 = invoke noundef i32 @_Z8toupperwi(i32 noundef %30)
          to label %32 unwind label %.loopexit.split-lp.loopexit

32:                                               ; preds = %29
  %33 = load i32, ptr %8, align 4
  %34 = invoke noundef i32 @_Z8toupperwi(i32 noundef %33)
          to label %35 unwind label %.loopexit.split-lp.loopexit

35:                                               ; preds = %32
  switch i32 %31, label %41 [
    i32 86, label %36
    i32 83, label %36
    i32 77, label %36
    i32 76, label %36
    i32 73, label %36
    i32 82, label %39
  ]

36:                                               ; preds = %35, %35, %35, %35, %35
  store i32 0, ptr %8, align 4
  %37 = icmp eq i32 %31, 82
  %38 = and i32 %34, -5
  %or.cond9 = icmp eq i32 %38, 82
  %or.cond = and i1 %37, %or.cond9
  br i1 %or.cond, label %40, label %41

39:                                               ; preds = %35
  %.old = and i32 %34, -5
  %or.cond9.old = icmp eq i32 %.old, 82
  br i1 %or.cond9.old, label %40, label %41

40:                                               ; preds = %36, %39
  store i32 0, ptr %9, align 8
  br label %41

41:                                               ; preds = %35, %39, %40, %36
  %42 = call i32 (ptr, i64, ptr, ...) @swprintf(ptr noundef nonnull %4, i64 noundef 32, ptr noundef nonnull @.str.10, ptr noundef nonnull %3) #18
  %43 = call i64 @wcslen(ptr noundef nonnull %4) #16
  %44 = invoke noundef i32 @_Z9wcsnicompPKwS0_m(ptr noundef nonnull %.0, ptr noundef nonnull %4, i64 noundef %43)
          to label %45 unwind label %.loopexit.split-lp.loopexit

45:                                               ; preds = %41
  %46 = icmp eq i32 %44, 0
  br i1 %46, label %47, label %.backedge

.backedge:                                        ; preds = %45, %47, %26
  br label %10, !llvm.loop !21

47:                                               ; preds = %45
  %48 = getelementptr inbounds i32, ptr %.0, i64 %43
  invoke void @_ZN11CommandData21ProcessSwitchesStringEPKw(ptr noundef nonnull align 8 dereferenceable(100904) %0, ptr noundef nonnull %48)
          to label %.backedge unwind label %.loopexit.split-lp.loopexit

.loopexit35:                                      ; preds = %12, %6
  %49 = load ptr, ptr %2, align 8
  %.not.i.i29 = icmp eq ptr %49, null
  br i1 %.not.i.i29, label %_ZN10StringListD2Ev.exit30, label %50

50:                                               ; preds = %.loopexit35
  call void @free(ptr noundef nonnull %49) #18
  br label %_ZN10StringListD2Ev.exit30

_ZN10StringListD2Ev.exit30:                       ; preds = %.loopexit35, %50
  ret void
}